---
triple:          'x86_64-apple-darwin'
binary-path:     "/Users/nikiforova.olesya/Desktop/ะะก/lab3/output/semaphore"
relocations:
  - { offsetInCU: 0x34DD, offset: 0x34DD, size: 0x8, addend: 0x0, symName: __ZNSt3__16chronogtB7v160002IxNS_5ratioILl1ELl1EEExS3_EEbRKNS0_8durationIT_T0_EERKNS4_IT1_T2_EE, symObjAddr: 0xFC0, symBinAddr: 0x100003650, symSize: 0x30 }
  - { offsetInCU: 0x353E, offset: 0x353E, size: 0x8, addend: 0x0, symName: __ZNSt3__16chronoltB7v160002IxNS_5ratioILl1ELl1EEEeS3_EEbRKNS0_8durationIT_T0_EERKNS4_IT1_T2_EE, symObjAddr: 0x1090, symBinAddr: 0x100003720, symSize: 0x30 }
  - { offsetInCU: 0x359F, offset: 0x359F, size: 0x8, addend: 0x0, symName: __ZNSt3__16chrono13duration_castB7v160002INS0_8durationIxNS_5ratioILl1ELl1000000000EEEEExNS3_ILl1ELl1EEEEENS_9enable_ifIXsr13__is_durationIT_EE5valueES8_E4typeERKNS2_IT0_T1_EE, symObjAddr: 0x10C0, symBinAddr: 0x100003750, symSize: 0x30 }
  - { offsetInCU: 0x35E6, offset: 0x35E6, size: 0x8, addend: 0x0, symName: __ZNSt3__16chronoltB7v160002IxNS_5ratioILl1ELl1000000000EEExNS2_ILl1ELl1EEEEEbRKNS0_8durationIT_T0_EERKNS5_IT1_T2_EE, symObjAddr: 0x10F0, symBinAddr: 0x100003780, symSize: 0x30 }
  - { offsetInCU: 0x3647, offset: 0x3647, size: 0x8, addend: 0x0, symName: __ZNSt3__16chronoltB7v160002IxNS_5ratioILl1ELl1EEExS3_EEbRKNS0_8durationIT_T0_EERKNS4_IT1_T2_EE, symObjAddr: 0x1190, symBinAddr: 0x100003820, symSize: 0x30 }
  - { offsetInCU: 0x3725, offset: 0x3725, size: 0x8, addend: 0x0, symName: __ZNSt3__16chrono13duration_castB7v160002INS0_8durationIeNS_5ratioILl1ELl1EEEEExS4_EENS_9enable_ifIXsr13__is_durationIT_EE5valueES7_E4typeERKNS2_IT0_T1_EE, symObjAddr: 0x13A0, symBinAddr: 0x100003A30, symSize: 0x30 }
  - { offsetInCU: 0x3856, offset: 0x3856, size: 0x8, addend: 0x0, symName: __ZNSt3__124__put_character_sequenceB7v160002IcNS_11char_traitsIcEEEERNS_13basic_ostreamIT_T0_EES7_PKS4_m, symObjAddr: 0x4A0, symBinAddr: 0x100002B30, symSize: 0x1F0 }
  - { offsetInCU: 0x553F, offset: 0x553F, size: 0x8, addend: 0x0, symName: __ZNSt3__1lsB7v160002INS_11char_traitsIcEEEERNS_13basic_ostreamIcT_EES6_PKc, symObjAddr: 0x2E0, symBinAddr: 0x100002970, symSize: 0x40 }
  - { offsetInCU: 0x5585, offset: 0x5585, size: 0x8, addend: 0x0, symName: __ZNSt3__14endlB7v160002IcNS_11char_traitsIcEEEERNS_13basic_ostreamIT_T0_EES7_, symObjAddr: 0x340, symBinAddr: 0x1000029D0, symSize: 0x50 }
  - { offsetInCU: 0x55CA, offset: 0x55CA, size: 0x8, addend: 0x0, symName: __ZNSt3__111this_thread9sleep_forB7v160002IxNS_5ratioILl1ELl1EEEEEvRKNS_6chrono8durationIT_T0_EE, symObjAddr: 0x390, symBinAddr: 0x100002A20, symSize: 0xE0 }
  - { offsetInCU: 0x564F, offset: 0x564F, size: 0x8, addend: 0x0, symName: __ZNSt3__116__pad_and_outputB7v160002IcNS_11char_traitsIcEEEENS_19ostreambuf_iteratorIT_T0_EES6_PKS4_S8_S8_RNS_8ios_baseES4_, symObjAddr: 0x6F0, symBinAddr: 0x100002D80, symSize: 0x220 }
  - { offsetInCU: 0x571F, offset: 0x571F, size: 0x8, addend: 0x0, symName: __ZNSt3__119__debug_db_insert_cB7v160002INS_12basic_stringIcNS_11char_traitsIcEENS_9allocatorIcEEEEEEvPT_, symObjAddr: 0xB90, symBinAddr: 0x100003220, symSize: 0x10 }
  - { offsetInCU: 0x5750, offset: 0x5750, size: 0x8, addend: 0x0, symName: __ZNSt3__112__to_addressB7v160002IKcEEPT_S3_, symObjAddr: 0xC30, symBinAddr: 0x1000032C0, symSize: 0x10 }
  - { offsetInCU: 0x5785, offset: 0x5785, size: 0x8, addend: 0x0, symName: __ZNSt3__130__libcpp_is_constant_evaluatedB7v160002Ev, symObjAddr: 0xD40, symBinAddr: 0x1000033D0, symSize: 0x10 }
  - { offsetInCU: 0x57D5, offset: 0x57D5, size: 0x8, addend: 0x0, symName: __ZNSt3__19use_facetB7v160002INS_5ctypeIcEEEERKT_RKNS_6localeE, symObjAddr: 0xEF0, symBinAddr: 0x100003580, symSize: 0x30 }
  - { offsetInCU: 0x5CA4, offset: 0x5CA4, size: 0x8, addend: 0x0, symName: __ZNSt3__118__constexpr_strlenB7v160002EPKc, symObjAddr: 0xF80, symBinAddr: 0x100003610, symSize: 0x20 }
  - { offsetInCU: 0x631E, offset: 0x631E, size: 0x8, addend: 0x0, symName: __ZNKSt3__16chrono13__duration_ltINS0_8durationIxNS_5ratioILl1ELl1EEEEENS2_IeS4_EEEclB7v160002ERKS5_RKS6_, symObjAddr: 0x12C0, symBinAddr: 0x100003950, symSize: 0x60 }
  - { offsetInCU: 0x6399, offset: 0x6399, size: 0x8, addend: 0x0, symName: __ZNKSt3__16chrono15__duration_castINS0_8durationIxNS_5ratioILl1ELl1EEEEENS2_IxNS3_ILl1ELl1000000000EEEEENS3_ILl1000000000ELl1EEELb0ELb1EEclB7v160002ERKS5_, symObjAddr: 0x1410, symBinAddr: 0x100003AA0, symSize: 0x40 }
  - { offsetInCU: 0x63E0, offset: 0x63E0, size: 0x8, addend: 0x0, symName: __ZNKSt3__16chrono13__duration_ltINS0_8durationIxNS_5ratioILl1ELl1000000000EEEEENS2_IxNS3_ILl1ELl1EEEEEEclB7v160002ERKS5_RKS7_, symObjAddr: 0x14A0, symBinAddr: 0x100003B30, symSize: 0x60 }
  - { offsetInCU: 0x8532, offset: 0x8532, size: 0x8, addend: 0x0, symName: __Z15createSemaphoreiii, symObjAddr: 0x0, symBinAddr: 0x100002690, symSize: 0x50 }
  - { offsetInCU: 0x8589, offset: 0x8589, size: 0x8, addend: 0x0, symName: __Z16operateSemaphoreiii, symObjAddr: 0x50, symBinAddr: 0x1000026E0, symSize: 0x60 }
  - { offsetInCU: 0x85DC, offset: 0x85DC, size: 0x8, addend: 0x0, symName: __Z16controlSemaphoreiiiP14__semid_ds_new, symObjAddr: 0xB0, symBinAddr: 0x100002740, symSize: 0x50 }
  - { offsetInCU: 0x862F, offset: 0x862F, size: 0x8, addend: 0x0, symName: _main, symObjAddr: 0x100, symBinAddr: 0x100002790, symSize: 0x1E0 }
  - { offsetInCU: 0x8676, offset: 0x8676, size: 0x8, addend: 0x0, symName: __ZNSt3__113basic_ostreamIcNS_11char_traitsIcEEElsB7v160002EPFRS3_S4_E, symObjAddr: 0x320, symBinAddr: 0x1000029B0, symSize: 0x20 }
  - { offsetInCU: 0x86B3, offset: 0x86B3, size: 0x8, addend: 0x0, symName: __ZNSt3__16chrono8durationIxNS_5ratioILl1ELl1EEEEC1B7v160002IiEERKT_PNS_9enable_ifIXaasr14is_convertibleIS8_xEE5valueooL_ZNS_17integral_constantIbLb0EE5valueEEntsr23treat_as_floating_pointIS6_EE5valueEvE4typeE, symObjAddr: 0x470, symBinAddr: 0x100002B00, symSize: 0x30 }
  - { offsetInCU: 0x86FF, offset: 0x86FF, size: 0x8, addend: 0x0, symName: __ZNSt3__111char_traitsIcE6lengthEPKc, symObjAddr: 0x690, symBinAddr: 0x100002D20, symSize: 0x40 }
  - { offsetInCU: 0x873F, offset: 0x873F, size: 0x8, addend: 0x0, symName: __ZNKSt3__113basic_ostreamIcNS_11char_traitsIcEEE6sentrycvbB7v160002Ev, symObjAddr: 0x6D0, symBinAddr: 0x100002D60, symSize: 0x20 }
  - { offsetInCU: 0x8764, offset: 0x8764, size: 0x8, addend: 0x0, symName: __ZNSt3__119ostreambuf_iteratorIcNS_11char_traitsIcEEEC1B7v160002ERNS_13basic_ostreamIcS2_EE, symObjAddr: 0x910, symBinAddr: 0x100002FA0, symSize: 0x30 }
  - { offsetInCU: 0x879B, offset: 0x879B, size: 0x8, addend: 0x0, symName: __ZNKSt3__18ios_base5flagsB7v160002Ev, symObjAddr: 0x940, symBinAddr: 0x100002FD0, symSize: 0x20 }
  - { offsetInCU: 0x87C2, offset: 0x87C2, size: 0x8, addend: 0x0, symName: __ZNKSt3__19basic_iosIcNS_11char_traitsIcEEE4fillB7v160002Ev, symObjAddr: 0x960, symBinAddr: 0x100002FF0, symSize: 0x70 }
  - { offsetInCU: 0x87E8, offset: 0x87E8, size: 0x8, addend: 0x0, symName: __ZNKSt3__119ostreambuf_iteratorIcNS_11char_traitsIcEEE6failedB7v160002Ev, symObjAddr: 0x9D0, symBinAddr: 0x100003060, symSize: 0x20 }
  - { offsetInCU: 0x880C, offset: 0x880C, size: 0x8, addend: 0x0, symName: __ZNSt3__19basic_iosIcNS_11char_traitsIcEEE8setstateB7v160002Ej, symObjAddr: 0x9F0, symBinAddr: 0x100003080, symSize: 0x30 }
  - { offsetInCU: 0x8840, offset: 0x8840, size: 0x8, addend: 0x0, symName: __ZNKSt3__18ios_base5widthB7v160002Ev, symObjAddr: 0xA30, symBinAddr: 0x1000030C0, symSize: 0x20 }
  - { offsetInCU: 0x8866, offset: 0x8866, size: 0x8, addend: 0x0, symName: __ZNSt3__115basic_streambufIcNS_11char_traitsIcEEE5sputnB7v160002EPKcl, symObjAddr: 0xA50, symBinAddr: 0x1000030E0, symSize: 0x30 }
  - { offsetInCU: 0x88A7, offset: 0x88A7, size: 0x8, addend: 0x0, symName: __ZNSt3__112basic_stringIcNS_11char_traitsIcEENS_9allocatorIcEEEC1B7v160002Emc, symObjAddr: 0xA80, symBinAddr: 0x100003110, symSize: 0x30 }
  - { offsetInCU: 0x88ED, offset: 0x88ED, size: 0x8, addend: 0x0, symName: __ZNKSt3__112basic_stringIcNS_11char_traitsIcEENS_9allocatorIcEEE4dataB7v160002Ev, symObjAddr: 0xAB0, symBinAddr: 0x100003140, symSize: 0x30 }
  - { offsetInCU: 0x8912, offset: 0x8912, size: 0x8, addend: 0x0, symName: __ZNSt3__18ios_base5widthB7v160002El, symObjAddr: 0xAE0, symBinAddr: 0x100003170, symSize: 0x30 }
  - { offsetInCU: 0x8957, offset: 0x8957, size: 0x8, addend: 0x0, symName: __ZNSt3__112basic_stringIcNS_11char_traitsIcEENS_9allocatorIcEEEC2B7v160002Emc, symObjAddr: 0xB10, symBinAddr: 0x1000031A0, symSize: 0x50 }
  - { offsetInCU: 0x89A3, offset: 0x89A3, size: 0x8, addend: 0x0, symName: __ZNSt3__117__compressed_pairINS_12basic_stringIcNS_11char_traitsIcEENS_9allocatorIcEEE5__repES5_EC1B7v160002INS_18__default_init_tagESA_EEOT_OT0_, symObjAddr: 0xB60, symBinAddr: 0x1000031F0, symSize: 0x30 }
  - { offsetInCU: 0x89FA, offset: 0x89FA, size: 0x8, addend: 0x0, symName: __ZNSt3__117__compressed_pairINS_12basic_stringIcNS_11char_traitsIcEENS_9allocatorIcEEE5__repES5_EC2B7v160002INS_18__default_init_tagESA_EEOT_OT0_, symObjAddr: 0xBA0, symBinAddr: 0x100003230, symSize: 0x30 }
  - { offsetInCU: 0x8A51, offset: 0x8A51, size: 0x8, addend: 0x0, symName: __ZNSt3__122__compressed_pair_elemINS_12basic_stringIcNS_11char_traitsIcEENS_9allocatorIcEEE5__repELi0ELb0EEC2B7v160002ENS_18__default_init_tagE, symObjAddr: 0xBD0, symBinAddr: 0x100003260, symSize: 0x10 }
  - { offsetInCU: 0x8A85, offset: 0x8A85, size: 0x8, addend: 0x0, symName: __ZNSt3__122__compressed_pair_elemINS_9allocatorIcEELi1ELb1EEC2B7v160002ENS_18__default_init_tagE, symObjAddr: 0xBE0, symBinAddr: 0x100003270, symSize: 0x20 }
  - { offsetInCU: 0x8AB9, offset: 0x8AB9, size: 0x8, addend: 0x0, symName: __ZNSt3__19allocatorIcEC2B7v160002Ev, symObjAddr: 0xC00, symBinAddr: 0x100003290, symSize: 0x20 }
  - { offsetInCU: 0x8AE2, offset: 0x8AE2, size: 0x8, addend: 0x0, symName: __ZNSt3__116__non_trivial_ifILb1ENS_9allocatorIcEEEC2B7v160002Ev, symObjAddr: 0xC20, symBinAddr: 0x1000032B0, symSize: 0x10 }
  - { offsetInCU: 0x8B0A, offset: 0x8B0A, size: 0x8, addend: 0x0, symName: __ZNKSt3__112basic_stringIcNS_11char_traitsIcEENS_9allocatorIcEEE13__get_pointerB7v160002Ev, symObjAddr: 0xC40, symBinAddr: 0x1000032D0, symSize: 0x50 }
  - { offsetInCU: 0x8B2E, offset: 0x8B2E, size: 0x8, addend: 0x0, symName: __ZNKSt3__112basic_stringIcNS_11char_traitsIcEENS_9allocatorIcEEE9__is_longB7v160002Ev, symObjAddr: 0xC90, symBinAddr: 0x100003320, symSize: 0x60 }
  - { offsetInCU: 0x8B52, offset: 0x8B52, size: 0x8, addend: 0x0, symName: __ZNKSt3__112basic_stringIcNS_11char_traitsIcEENS_9allocatorIcEEE18__get_long_pointerB7v160002Ev, symObjAddr: 0xCF0, symBinAddr: 0x100003380, symSize: 0x20 }
  - { offsetInCU: 0x8B76, offset: 0x8B76, size: 0x8, addend: 0x0, symName: __ZNKSt3__112basic_stringIcNS_11char_traitsIcEENS_9allocatorIcEEE19__get_short_pointerB7v160002Ev, symObjAddr: 0xD10, symBinAddr: 0x1000033A0, symSize: 0x30 }
  - { offsetInCU: 0x8B9A, offset: 0x8B9A, size: 0x8, addend: 0x0, symName: __ZNKSt3__117__compressed_pairINS_12basic_stringIcNS_11char_traitsIcEENS_9allocatorIcEEE5__repES5_E5firstB7v160002Ev, symObjAddr: 0xD50, symBinAddr: 0x1000033E0, symSize: 0x20 }
  - { offsetInCU: 0x8BBE, offset: 0x8BBE, size: 0x8, addend: 0x0, symName: __ZNKSt3__122__compressed_pair_elemINS_12basic_stringIcNS_11char_traitsIcEENS_9allocatorIcEEE5__repELi0ELb0EE5__getB7v160002Ev, symObjAddr: 0xD70, symBinAddr: 0x100003400, symSize: 0x10 }
  - { offsetInCU: 0x8BE3, offset: 0x8BE3, size: 0x8, addend: 0x0, symName: __ZNSt3__114pointer_traitsIPKcE10pointer_toB7v160002ERS1_, symObjAddr: 0xD80, symBinAddr: 0x100003410, symSize: 0x10 }
  - { offsetInCU: 0x8C06, offset: 0x8C06, size: 0x8, addend: 0x0, symName: __ZNSt3__119ostreambuf_iteratorIcNS_11char_traitsIcEEEC2B7v160002ERNS_13basic_ostreamIcS2_EE, symObjAddr: 0xD90, symBinAddr: 0x100003420, symSize: 0x60 }
  - { offsetInCU: 0x8C3D, offset: 0x8C3D, size: 0x8, addend: 0x0, symName: __ZNKSt3__19basic_iosIcNS_11char_traitsIcEEE5rdbufB7v160002Ev, symObjAddr: 0xDF0, symBinAddr: 0x100003480, symSize: 0x20 }
  - { offsetInCU: 0x8C63, offset: 0x8C63, size: 0x8, addend: 0x0, symName: __ZNKSt3__18ios_base5rdbufB7v160002Ev, symObjAddr: 0xE10, symBinAddr: 0x1000034A0, symSize: 0x20 }
  - { offsetInCU: 0x8C88, offset: 0x8C88, size: 0x8, addend: 0x0, symName: __ZNSt3__111char_traitsIcE11eq_int_typeEii, symObjAddr: 0xE30, symBinAddr: 0x1000034C0, symSize: 0x20 }
  - { offsetInCU: 0x8CB9, offset: 0x8CB9, size: 0x8, addend: 0x0, symName: __ZNSt3__111char_traitsIcE3eofEv, symObjAddr: 0xE50, symBinAddr: 0x1000034E0, symSize: 0x10 }
  - { offsetInCU: 0x8CCD, offset: 0x8CCD, size: 0x8, addend: 0x0, symName: __ZNKSt3__19basic_iosIcNS_11char_traitsIcEEE5widenB7v160002Ec, symObjAddr: 0xE60, symBinAddr: 0x1000034F0, symSize: 0x90 }
  - { offsetInCU: 0x8D39, offset: 0x8D39, size: 0x8, addend: 0x0, symName: __ZNKSt3__15ctypeIcE5widenB7v160002Ec, symObjAddr: 0xF20, symBinAddr: 0x1000035B0, symSize: 0x30 }
  - { offsetInCU: 0x8D6D, offset: 0x8D6D, size: 0x8, addend: 0x0, symName: __ZNSt3__18ios_base8setstateB7v160002Ej, symObjAddr: 0xF50, symBinAddr: 0x1000035E0, symSize: 0x30 }
  - { offsetInCU: 0x8DA3, offset: 0x8DA3, size: 0x8, addend: 0x0, symName: __ZNSt3__16chrono8durationIxNS_5ratioILl1ELl1EEEEC2B7v160002IiEERKT_PNS_9enable_ifIXaasr14is_convertibleIS8_xEE5valueooL_ZNS_17integral_constantIbLb0EE5valueEEntsr23treat_as_floating_pointIS6_EE5valueEvE4typeE, symObjAddr: 0xFA0, symBinAddr: 0x100003630, symSize: 0x20 }
  - { offsetInCU: 0x8DEF, offset: 0x8DEF, size: 0x8, addend: 0x0, symName: __ZNSt3__16chrono8durationIxNS_5ratioILl1ELl1EEEE4zeroB7v160002Ev, symObjAddr: 0xFF0, symBinAddr: 0x100003680, symSize: 0x50 }
  - { offsetInCU: 0x8E0D, offset: 0x8E0D, size: 0x8, addend: 0x0, symName: __ZNSt3__16chrono8durationIeNS_5ratioILl1ELl1EEEEC1B7v160002IeEERKT_PNS_9enable_ifIXaasr14is_convertibleIS8_eEE5valueooL_ZNS_17integral_constantIbLb1EE5valueEEntsr23treat_as_floating_pointIS6_EE5valueEvE4typeE, symObjAddr: 0x1040, symBinAddr: 0x1000036D0, symSize: 0x30 }
  - { offsetInCU: 0x8E59, offset: 0x8E59, size: 0x8, addend: 0x0, symName: __ZNSt3__16chrono8durationIxNS_5ratioILl1ELl1000000000EEEEC1B7v160002Ev, symObjAddr: 0x1070, symBinAddr: 0x100003700, symSize: 0x20 }
  - { offsetInCU: 0x8E81, offset: 0x8E81, size: 0x8, addend: 0x0, symName: __ZNSt3__16chrono8durationIxNS_5ratioILl1ELl1000000000EEEEppB7v160002Ev, symObjAddr: 0x1120, symBinAddr: 0x1000037B0, symSize: 0x20 }
  - { offsetInCU: 0x8EA6, offset: 0x8EA6, size: 0x8, addend: 0x0, symName: __ZNSt3__16chrono8durationIxNS_5ratioILl1ELl1000000000EEEE3maxB7v160002Ev, symObjAddr: 0x1140, symBinAddr: 0x1000037D0, symSize: 0x50 }
  - { offsetInCU: 0x8EC3, offset: 0x8EC3, size: 0x8, addend: 0x0, symName: __ZNKSt3__16chrono13__duration_ltINS0_8durationIxNS_5ratioILl1ELl1EEEEES5_EclB7v160002ERKS5_S8_, symObjAddr: 0x11C0, symBinAddr: 0x100003850, symSize: 0x50 }
  - { offsetInCU: 0x8F05, offset: 0x8F05, size: 0x8, addend: 0x0, symName: __ZNKSt3__16chrono8durationIxNS_5ratioILl1ELl1EEEE5countB7v160002Ev, symObjAddr: 0x1210, symBinAddr: 0x1000038A0, symSize: 0x20 }
  - { offsetInCU: 0x8F2A, offset: 0x8F2A, size: 0x8, addend: 0x0, symName: __ZNSt3__16chrono15duration_valuesIxE4zeroB7v160002Ev, symObjAddr: 0x1230, symBinAddr: 0x1000038C0, symSize: 0x10 }
  - { offsetInCU: 0x8F48, offset: 0x8F48, size: 0x8, addend: 0x0, symName: __ZNSt3__16chrono8durationIxNS_5ratioILl1ELl1EEEEC1B7v160002IxEERKT_PNS_9enable_ifIXaasr14is_convertibleIS8_xEE5valueooL_ZNS_17integral_constantIbLb0EE5valueEEntsr23treat_as_floating_pointIS6_EE5valueEvE4typeE, symObjAddr: 0x1240, symBinAddr: 0x1000038D0, symSize: 0x30 }
  - { offsetInCU: 0x8F94, offset: 0x8F94, size: 0x8, addend: 0x0, symName: __ZNSt3__16chrono8durationIxNS_5ratioILl1ELl1EEEEC2B7v160002IxEERKT_PNS_9enable_ifIXaasr14is_convertibleIS8_xEE5valueooL_ZNS_17integral_constantIbLb0EE5valueEEntsr23treat_as_floating_pointIS6_EE5valueEvE4typeE, symObjAddr: 0x1270, symBinAddr: 0x100003900, symSize: 0x20 }
  - { offsetInCU: 0x8FE0, offset: 0x8FE0, size: 0x8, addend: 0x0, symName: __ZNSt3__16chrono8durationIeNS_5ratioILl1ELl1EEEEC2B7v160002IeEERKT_PNS_9enable_ifIXaasr14is_convertibleIS8_eEE5valueooL_ZNS_17integral_constantIbLb1EE5valueEEntsr23treat_as_floating_pointIS6_EE5valueEvE4typeE, symObjAddr: 0x1290, symBinAddr: 0x100003920, symSize: 0x20 }
  - { offsetInCU: 0x902C, offset: 0x902C, size: 0x8, addend: 0x0, symName: __ZNSt3__16chrono8durationIxNS_5ratioILl1ELl1000000000EEEEC2B7v160002Ev, symObjAddr: 0x12B0, symBinAddr: 0x100003940, symSize: 0x10 }
  - { offsetInCU: 0x9055, offset: 0x9055, size: 0x8, addend: 0x0, symName: __ZNSt3__16chrono8durationIeNS_5ratioILl1ELl1EEEEC1B7v160002IxS3_EERKNS1_IT_T0_EEPNS_9enable_ifIXaasr13__no_overflowIS7_S3_EE5valueooL_ZNS_17integral_constantIbLb1EE5valueEEaaeqsr13__no_overflowIS7_S3_E4typeE3denLi1Entsr23treat_as_floating_pointIS6_EE5valueEvE4typeE, symObjAddr: 0x1320, symBinAddr: 0x1000039B0, symSize: 0x30 }
  - { offsetInCU: 0x90AA, offset: 0x90AA, size: 0x8, addend: 0x0, symName: __ZNKSt3__16chrono8durationIeNS_5ratioILl1ELl1EEEE5countB7v160002Ev, symObjAddr: 0x1350, symBinAddr: 0x1000039E0, symSize: 0x10 }
  - { offsetInCU: 0x90CF, offset: 0x90CF, size: 0x8, addend: 0x0, symName: __ZNSt3__16chrono8durationIeNS_5ratioILl1ELl1EEEEC2B7v160002IxS3_EERKNS1_IT_T0_EEPNS_9enable_ifIXaasr13__no_overflowIS7_S3_EE5valueooL_ZNS_17integral_constantIbLb1EE5valueEEaaeqsr13__no_overflowIS7_S3_E4typeE3denLi1Entsr23treat_as_floating_pointIS6_EE5valueEvE4typeE, symObjAddr: 0x1360, symBinAddr: 0x1000039F0, symSize: 0x40 }
  - { offsetInCU: 0x912E, offset: 0x912E, size: 0x8, addend: 0x0, symName: __ZNKSt3__16chrono15__duration_castINS0_8durationIxNS_5ratioILl1ELl1EEEEENS2_IeS4_EES4_Lb1ELb1EEclB7v160002ERKS5_, symObjAddr: 0x13D0, symBinAddr: 0x100003A60, symSize: 0x40 }
  - { offsetInCU: 0x9161, offset: 0x9161, size: 0x8, addend: 0x0, symName: __ZNSt3__16chrono8durationIxNS_5ratioILl1ELl1000000000EEEEC1B7v160002IxEERKT_PNS_9enable_ifIXaasr14is_convertibleIS8_xEE5valueooL_ZNS_17integral_constantIbLb0EE5valueEEntsr23treat_as_floating_pointIS6_EE5valueEvE4typeE, symObjAddr: 0x1450, symBinAddr: 0x100003AE0, symSize: 0x30 }
  - { offsetInCU: 0x91AD, offset: 0x91AD, size: 0x8, addend: 0x0, symName: __ZNSt3__16chrono8durationIxNS_5ratioILl1ELl1000000000EEEEC2B7v160002IxEERKT_PNS_9enable_ifIXaasr14is_convertibleIS8_xEE5valueooL_ZNS_17integral_constantIbLb0EE5valueEEntsr23treat_as_floating_pointIS6_EE5valueEvE4typeE, symObjAddr: 0x1480, symBinAddr: 0x100003B10, symSize: 0x20 }
  - { offsetInCU: 0x91F8, offset: 0x91F8, size: 0x8, addend: 0x0, symName: __ZNKSt3__16chrono8durationIxNS_5ratioILl1ELl1000000000EEEE5countB7v160002Ev, symObjAddr: 0x1500, symBinAddr: 0x100003B90, symSize: 0x20 }
  - { offsetInCU: 0x921D, offset: 0x921D, size: 0x8, addend: 0x0, symName: __ZNSt3__16chrono8durationIxNS_5ratioILl1ELl1000000000EEEEC1B7v160002IxNS2_ILl1ELl1EEEEERKNS1_IT_T0_EEPNS_9enable_ifIXaasr13__no_overflowIS8_S3_EE5valueooL_ZNS_17integral_constantIbLb0EE5valueEEaaeqsr13__no_overflowIS8_S3_E4typeE3denLi1Entsr23treat_as_floating_pointIS7_EE5valueEvE4typeE, symObjAddr: 0x1520, symBinAddr: 0x100003BB0, symSize: 0x30 }
  - { offsetInCU: 0x9273, offset: 0x9273, size: 0x8, addend: 0x0, symName: __ZNSt3__16chrono8durationIxNS_5ratioILl1ELl1000000000EEEEC2B7v160002IxNS2_ILl1ELl1EEEEERKNS1_IT_T0_EEPNS_9enable_ifIXaasr13__no_overflowIS8_S3_EE5valueooL_ZNS_17integral_constantIbLb0EE5valueEEaaeqsr13__no_overflowIS8_S3_E4typeE3denLi1Entsr23treat_as_floating_pointIS7_EE5valueEvE4typeE, symObjAddr: 0x1550, symBinAddr: 0x100003BE0, symSize: 0x50 }
  - { offsetInCU: 0x92C9, offset: 0x92C9, size: 0x8, addend: 0x0, symName: __ZNSt3__16chrono15duration_valuesIxE3maxB7v160002Ev, symObjAddr: 0x15A0, symBinAddr: 0x100003C30, symSize: 0x10 }
  - { offsetInCU: 0x92DD, offset: 0x92DD, size: 0x8, addend: 0x0, symName: __ZNSt3__114numeric_limitsIxE3maxB7v160002Ev, symObjAddr: 0x15B0, symBinAddr: 0x100003C40, symSize: 0x10 }
  - { offsetInCU: 0x92F1, offset: 0x92F1, size: 0x8, addend: 0x0, symName: __ZNSt3__123__libcpp_numeric_limitsIxLb1EE3maxB7v160002Ev, symObjAddr: 0x15C0, symBinAddr: 0x100003C50, symSize: 0x10 }
...
